target datalayout = "e-m:e-p270:32:32-p271:32:32-p272:64:64-i64:64-i128:128-f80:128-n8:16:32:64-S128"
target triple = "x86_64-pc-linux-gnu"

%"struct.Luau::CodeGen::IrOp" = type { i32 }

; Function Attrs: mustprogress uwtable
define dso_local void @_ZN4Luau7CodeGen25translateInstForGPrepNextERNS0_9IrBuilderEPKji(ptr noundef nonnull align 8 dereferenceable(752) %0, ptr noundef %1, i32 noundef %2) #0 {
  %4 = alloca ptr, align 8
  %5 = alloca ptr, align 8
  %6 = alloca i32, align 4
  %7 = alloca i32, align 4
  %8 = alloca %"struct.Luau::CodeGen::IrOp", align 4
  %9 = alloca %"struct.Luau::CodeGen::IrOp", align 4
  %10 = alloca %"struct.Luau::CodeGen::IrOp", align 4
  %11 = alloca %"struct.Luau::CodeGen::IrOp", align 4
  %12 = alloca %"struct.Luau::CodeGen::IrOp", align 4
  %13 = alloca %"struct.Luau::CodeGen::IrOp", align 4
  %14 = alloca %"struct.Luau::CodeGen::IrOp", align 4
  %15 = alloca %"struct.Luau::CodeGen::IrOp", align 4
  %16 = alloca %"struct.Luau::CodeGen::IrOp", align 4
  %17 = alloca %"struct.Luau::CodeGen::IrOp", align 4
  %18 = alloca %"struct.Luau::CodeGen::IrOp", align 4
  %19 = alloca %"struct.Luau::CodeGen::IrOp", align 4
  %20 = alloca %"struct.Luau::CodeGen::IrOp", align 4
  %21 = alloca %"struct.Luau::CodeGen::IrOp", align 4
  %22 = alloca %"struct.Luau::CodeGen::IrOp", align 4
  %23 = alloca %"struct.Luau::CodeGen::IrOp", align 4
  %24 = alloca %"struct.Luau::CodeGen::IrOp", align 4
  %25 = alloca %"struct.Luau::CodeGen::IrOp", align 4
  %26 = alloca %"struct.Luau::CodeGen::IrOp", align 4
  %27 = alloca %"struct.Luau::CodeGen::IrOp", align 4
  %28 = alloca %"struct.Luau::CodeGen::IrOp", align 4
  %29 = alloca %"struct.Luau::CodeGen::IrOp", align 4
  %30 = alloca %"struct.Luau::CodeGen::IrOp", align 4
  %31 = alloca %"struct.Luau::CodeGen::IrOp", align 4
  %32 = alloca %"struct.Luau::CodeGen::IrOp", align 4
  %33 = alloca %"struct.Luau::CodeGen::IrOp", align 4
  %34 = alloca %"struct.Luau::CodeGen::IrOp", align 4
  %35 = alloca %"struct.Luau::CodeGen::IrOp", align 4
  %36 = alloca %"struct.Luau::CodeGen::IrOp", align 4
  %37 = alloca %"struct.Luau::CodeGen::IrOp", align 4
  %38 = alloca %"struct.Luau::CodeGen::IrOp", align 4
  %39 = alloca %"struct.Luau::CodeGen::IrOp", align 4
  %40 = alloca %"struct.Luau::CodeGen::IrOp", align 4
  %41 = alloca %"struct.Luau::CodeGen::IrOp", align 4
  %42 = alloca %"struct.Luau::CodeGen::IrOp", align 4
  store ptr %0, ptr %4, align 8, !tbaa !4
  store ptr %1, ptr %5, align 8, !tbaa !9
  store i32 %2, ptr %6, align 4, !tbaa !11
  call void @llvm.lifetime.start.p0(i64 4, ptr %7) #13
  %43 = load ptr, ptr %5, align 8, !tbaa !9
  %44 = load i32, ptr %43, align 4, !tbaa !11
  %45 = lshr i32 %44, 8
  %46 = and i32 %45, 255
  store i32 %46, ptr %7, align 4, !tbaa !11
  call void @llvm.lifetime.start.p0(i64 4, ptr %8) #13
  %47 = load ptr, ptr %4, align 8, !tbaa !4
  %48 = load i32, ptr %6, align 4, !tbaa !11
  %49 = add nsw i32 %48, 1
  %50 = load ptr, ptr %5, align 8, !tbaa !9
  %51 = load i32, ptr %50, align 4, !tbaa !11
  %52 = ashr i32 %51, 16
  %53 = add nsw i32 %49, %52
  %54 = call i32 @_ZN4Luau7CodeGen9IrBuilder11blockAtInstEj(ptr noundef nonnull align 8 dereferenceable(752) %47, i32 noundef %53)
  %55 = getelementptr inbounds nuw %"struct.Luau::CodeGen::IrOp", ptr %8, i32 0, i32 0
  store i32 %54, ptr %55, align 4
  call void @llvm.lifetime.start.p0(i64 4, ptr %9) #13
  %56 = load ptr, ptr %4, align 8, !tbaa !4
  %57 = call i32 @_ZN4Luau7CodeGen9IrBuilder5blockENS0_11IrBlockKindE(ptr noundef nonnull align 8 dereferenceable(752) %56, i8 noundef zeroext 1)
  %58 = getelementptr inbounds nuw %"struct.Luau::CodeGen::IrOp", ptr %9, i32 0, i32 0
  store i32 %57, ptr %58, align 4
  %59 = load ptr, ptr %4, align 8, !tbaa !4
  %60 = load ptr, ptr %4, align 8, !tbaa !4
  %61 = load i32, ptr %6, align 4, !tbaa !11
  %62 = call i32 @_ZN4Luau7CodeGen9IrBuilder6vmExitEj(ptr noundef nonnull align 8 dereferenceable(752) %60, i32 noundef %61)
  %63 = getelementptr inbounds nuw %"struct.Luau::CodeGen::IrOp", ptr %10, i32 0, i32 0
  store i32 %62, ptr %63, align 4
  %64 = getelementptr inbounds nuw %"struct.Luau::CodeGen::IrOp", ptr %10, i32 0, i32 0
  %65 = load i32, ptr %64, align 4
  %66 = call i32 @_ZN4Luau7CodeGen9IrBuilder4instENS0_5IrCmdENS0_4IrOpE(ptr noundef nonnull align 8 dereferenceable(752) %59, i8 noundef zeroext 86, i32 %65)
  %67 = getelementptr inbounds nuw %"struct.Luau::CodeGen::IrOp", ptr %11, i32 0, i32 0
  store i32 %66, ptr %67, align 4
  call void @llvm.lifetime.start.p0(i64 4, ptr %12) #13
  %68 = load ptr, ptr %4, align 8, !tbaa !4
  %69 = load ptr, ptr %4, align 8, !tbaa !4
  %70 = load i32, ptr %7, align 4, !tbaa !11
  %71 = add nsw i32 %70, 1
  %72 = trunc i32 %71 to i8
  %73 = call i32 @_ZN4Luau7CodeGen9IrBuilder5vmRegEh(ptr noundef nonnull align 8 dereferenceable(752) %69, i8 noundef zeroext %72)
  %74 = getelementptr inbounds nuw %"struct.Luau::CodeGen::IrOp", ptr %13, i32 0, i32 0
  store i32 %73, ptr %74, align 4
  %75 = getelementptr inbounds nuw %"struct.Luau::CodeGen::IrOp", ptr %13, i32 0, i32 0
  %76 = load i32, ptr %75, align 4
  %77 = call i32 @_ZN4Luau7CodeGen9IrBuilder4instENS0_5IrCmdENS0_4IrOpE(ptr noundef nonnull align 8 dereferenceable(752) %68, i8 noundef zeroext 1, i32 %76)
  %78 = getelementptr inbounds nuw %"struct.Luau::CodeGen::IrOp", ptr %12, i32 0, i32 0
  store i32 %77, ptr %78, align 4
  %79 = load ptr, ptr %4, align 8, !tbaa !4
  call void @llvm.memcpy.p0.p0.i64(ptr align 4 %14, ptr align 4 %12, i64 4, i1 false), !tbaa.struct !112
  %80 = load ptr, ptr %4, align 8, !tbaa !4
  %81 = call i32 @_ZN4Luau7CodeGen9IrBuilder8constTagEh(ptr noundef nonnull align 8 dereferenceable(752) %80, i8 noundef zeroext 6)
  %82 = getelementptr inbounds nuw %"struct.Luau::CodeGen::IrOp", ptr %15, i32 0, i32 0
  store i32 %81, ptr %82, align 4
  call void @llvm.memcpy.p0.p0.i64(ptr align 4 %16, ptr align 4 %9, i64 4, i1 false), !tbaa.struct !112
  %83 = getelementptr inbounds nuw %"struct.Luau::CodeGen::IrOp", ptr %14, i32 0, i32 0
  %84 = load i32, ptr %83, align 4
  %85 = getelementptr inbounds nuw %"struct.Luau::CodeGen::IrOp", ptr %15, i32 0, i32 0
  %86 = load i32, ptr %85, align 4
  %87 = getelementptr inbounds nuw %"struct.Luau::CodeGen::IrOp", ptr %16, i32 0, i32 0
  %88 = load i32, ptr %87, align 4
  %89 = call i32 @_ZN4Luau7CodeGen9IrBuilder4instENS0_5IrCmdENS0_4IrOpES3_S3_(ptr noundef nonnull align 8 dereferenceable(752) %79, i8 noundef zeroext 82, i32 %84, i32 %86, i32 %88)
  %90 = getelementptr inbounds nuw %"struct.Luau::CodeGen::IrOp", ptr %17, i32 0, i32 0
  store i32 %89, ptr %90, align 4
  call void @llvm.lifetime.start.p0(i64 4, ptr %18) #13
  %91 = load ptr, ptr %4, align 8, !tbaa !4
  %92 = load ptr, ptr %4, align 8, !tbaa !4
  %93 = load i32, ptr %7, align 4, !tbaa !11
  %94 = add nsw i32 %93, 2
  %95 = trunc i32 %94 to i8
  %96 = call i32 @_ZN4Luau7CodeGen9IrBuilder5vmRegEh(ptr noundef nonnull align 8 dereferenceable(752) %92, i8 noundef zeroext %95)
  %97 = getelementptr inbounds nuw %"struct.Luau::CodeGen::IrOp", ptr %19, i32 0, i32 0
  store i32 %96, ptr %97, align 4
  %98 = getelementptr inbounds nuw %"struct.Luau::CodeGen::IrOp", ptr %19, i32 0, i32 0
  %99 = load i32, ptr %98, align 4
  %100 = call i32 @_ZN4Luau7CodeGen9IrBuilder4instENS0_5IrCmdENS0_4IrOpE(ptr noundef nonnull align 8 dereferenceable(752) %91, i8 noundef zeroext 1, i32 %99)
  %101 = getelementptr inbounds nuw %"struct.Luau::CodeGen::IrOp", ptr %18, i32 0, i32 0
  store i32 %100, ptr %101, align 4
  %102 = load ptr, ptr %4, align 8, !tbaa !4
  call void @llvm.memcpy.p0.p0.i64(ptr align 4 %20, ptr align 4 %18, i64 4, i1 false), !tbaa.struct !112
  %103 = load ptr, ptr %4, align 8, !tbaa !4
  %104 = call i32 @_ZN4Luau7CodeGen9IrBuilder8constTagEh(ptr noundef nonnull align 8 dereferenceable(752) %103, i8 noundef zeroext 0)
  %105 = getelementptr inbounds nuw %"struct.Luau::CodeGen::IrOp", ptr %21, i32 0, i32 0
  store i32 %104, ptr %105, align 4
  call void @llvm.memcpy.p0.p0.i64(ptr align 4 %22, ptr align 4 %9, i64 4, i1 false), !tbaa.struct !112
  %106 = getelementptr inbounds nuw %"struct.Luau::CodeGen::IrOp", ptr %20, i32 0, i32 0
  %107 = load i32, ptr %106, align 4
  %108 = getelementptr inbounds nuw %"struct.Luau::CodeGen::IrOp", ptr %21, i32 0, i32 0
  %109 = load i32, ptr %108, align 4
  %110 = getelementptr inbounds nuw %"struct.Luau::CodeGen::IrOp", ptr %22, i32 0, i32 0
  %111 = load i32, ptr %110, align 4
  %112 = call i32 @_ZN4Luau7CodeGen9IrBuilder4instENS0_5IrCmdENS0_4IrOpES3_S3_(ptr noundef nonnull align 8 dereferenceable(752) %102, i8 noundef zeroext 82, i32 %107, i32 %109, i32 %111)
  %113 = getelementptr inbounds nuw %"struct.Luau::CodeGen::IrOp", ptr %23, i32 0, i32 0
  store i32 %112, ptr %113, align 4
  %114 = load ptr, ptr %4, align 8, !tbaa !4
  %115 = load ptr, ptr %4, align 8, !tbaa !4
  %116 = load i32, ptr %7, align 4, !tbaa !11
  %117 = trunc i32 %116 to i8
  %118 = call i32 @_ZN4Luau7CodeGen9IrBuilder5vmRegEh(ptr noundef nonnull align 8 dereferenceable(752) %115, i8 noundef zeroext %117)
  %119 = getelementptr inbounds nuw %"struct.Luau::CodeGen::IrOp", ptr %24, i32 0, i32 0
  store i32 %118, ptr %119, align 4
  %120 = load ptr, ptr %4, align 8, !tbaa !4
  %121 = call i32 @_ZN4Luau7CodeGen9IrBuilder8constTagEh(ptr noundef nonnull align 8 dereferenceable(752) %120, i8 noundef zeroext 0)
  %122 = getelementptr inbounds nuw %"struct.Luau::CodeGen::IrOp", ptr %25, i32 0, i32 0
  store i32 %121, ptr %122, align 4
  %123 = getelementptr inbounds nuw %"struct.Luau::CodeGen::IrOp", ptr %24, i32 0, i32 0
  %124 = load i32, ptr %123, align 4
  %125 = getelementptr inbounds nuw %"struct.Luau::CodeGen::IrOp", ptr %25, i32 0, i32 0
  %126 = load i32, ptr %125, align 4
  %127 = call i32 @_ZN4Luau7CodeGen9IrBuilder4instENS0_5IrCmdENS0_4IrOpES3_(ptr noundef nonnull align 8 dereferenceable(752) %114, i8 noundef zeroext 12, i32 %124, i32 %126)
  %128 = getelementptr inbounds nuw %"struct.Luau::CodeGen::IrOp", ptr %26, i32 0, i32 0
  store i32 %127, ptr %128, align 4
  %129 = load ptr, ptr %4, align 8, !tbaa !4
  %130 = load ptr, ptr %4, align 8, !tbaa !4
  %131 = load i32, ptr %7, align 4, !tbaa !11
  %132 = add nsw i32 %131, 2
  %133 = trunc i32 %132 to i8
  %134 = call i32 @_ZN4Luau7CodeGen9IrBuilder5vmRegEh(ptr noundef nonnull align 8 dereferenceable(752) %130, i8 noundef zeroext %133)
  %135 = getelementptr inbounds nuw %"struct.Luau::CodeGen::IrOp", ptr %27, i32 0, i32 0
  store i32 %134, ptr %135, align 4
  %136 = load ptr, ptr %4, align 8, !tbaa !4
  %137 = call i32 @_ZN4Luau7CodeGen9IrBuilder8constIntEi(ptr noundef nonnull align 8 dereferenceable(752) %136, i32 noundef 0)
  %138 = getelementptr inbounds nuw %"struct.Luau::CodeGen::IrOp", ptr %28, i32 0, i32 0
  store i32 %137, ptr %138, align 4
  %139 = getelementptr inbounds nuw %"struct.Luau::CodeGen::IrOp", ptr %27, i32 0, i32 0
  %140 = load i32, ptr %139, align 4
  %141 = getelementptr inbounds nuw %"struct.Luau::CodeGen::IrOp", ptr %28, i32 0, i32 0
  %142 = load i32, ptr %141, align 4
  %143 = call i32 @_ZN4Luau7CodeGen9IrBuilder4instENS0_5IrCmdENS0_4IrOpES3_(ptr noundef nonnull align 8 dereferenceable(752) %129, i8 noundef zeroext 14, i32 %140, i32 %142)
  %144 = getelementptr inbounds nuw %"struct.Luau::CodeGen::IrOp", ptr %29, i32 0, i32 0
  store i32 %143, ptr %144, align 4
  %145 = load ptr, ptr %4, align 8, !tbaa !4
  %146 = load ptr, ptr %4, align 8, !tbaa !4
  %147 = load i32, ptr %7, align 4, !tbaa !11
  %148 = add nsw i32 %147, 2
  %149 = trunc i32 %148 to i8
  %150 = call i32 @_ZN4Luau7CodeGen9IrBuilder5vmRegEh(ptr noundef nonnull align 8 dereferenceable(752) %146, i8 noundef zeroext %149)
  %151 = getelementptr inbounds nuw %"struct.Luau::CodeGen::IrOp", ptr %30, i32 0, i32 0
  store i32 %150, ptr %151, align 4
  %152 = load ptr, ptr %4, align 8, !tbaa !4
  %153 = call i32 @_ZN4Luau7CodeGen9IrBuilder8constIntEi(ptr noundef nonnull align 8 dereferenceable(752) %152, i32 noundef 128)
  %154 = getelementptr inbounds nuw %"struct.Luau::CodeGen::IrOp", ptr %31, i32 0, i32 0
  store i32 %153, ptr %154, align 4
  %155 = getelementptr inbounds nuw %"struct.Luau::CodeGen::IrOp", ptr %30, i32 0, i32 0
  %156 = load i32, ptr %155, align 4
  %157 = getelementptr inbounds nuw %"struct.Luau::CodeGen::IrOp", ptr %31, i32 0, i32 0
  %158 = load i32, ptr %157, align 4
  %159 = call i32 @_ZN4Luau7CodeGen9IrBuilder4instENS0_5IrCmdENS0_4IrOpES3_(ptr noundef nonnull align 8 dereferenceable(752) %145, i8 noundef zeroext 13, i32 %156, i32 %158)
  %160 = getelementptr inbounds nuw %"struct.Luau::CodeGen::IrOp", ptr %32, i32 0, i32 0
  store i32 %159, ptr %160, align 4
  %161 = load ptr, ptr %4, align 8, !tbaa !4
  %162 = load ptr, ptr %4, align 8, !tbaa !4
  %163 = load i32, ptr %7, align 4, !tbaa !11
  %164 = add nsw i32 %163, 2
  %165 = trunc i32 %164 to i8
  %166 = call i32 @_ZN4Luau7CodeGen9IrBuilder5vmRegEh(ptr noundef nonnull align 8 dereferenceable(752) %162, i8 noundef zeroext %165)
  %167 = getelementptr inbounds nuw %"struct.Luau::CodeGen::IrOp", ptr %33, i32 0, i32 0
  store i32 %166, ptr %167, align 4
  %168 = load ptr, ptr %4, align 8, !tbaa !4
  %169 = call i32 @_ZN4Luau7CodeGen9IrBuilder8constTagEh(ptr noundef nonnull align 8 dereferenceable(752) %168, i8 noundef zeroext 2)
  %170 = getelementptr inbounds nuw %"struct.Luau::CodeGen::IrOp", ptr %34, i32 0, i32 0
  store i32 %169, ptr %170, align 4
  %171 = getelementptr inbounds nuw %"struct.Luau::CodeGen::IrOp", ptr %33, i32 0, i32 0
  %172 = load i32, ptr %171, align 4
  %173 = getelementptr inbounds nuw %"struct.Luau::CodeGen::IrOp", ptr %34, i32 0, i32 0
  %174 = load i32, ptr %173, align 4
  %175 = call i32 @_ZN4Luau7CodeGen9IrBuilder4instENS0_5IrCmdENS0_4IrOpES3_(ptr noundef nonnull align 8 dereferenceable(752) %161, i8 noundef zeroext 12, i32 %172, i32 %174)
  %176 = getelementptr inbounds nuw %"struct.Luau::CodeGen::IrOp", ptr %35, i32 0, i32 0
  store i32 %175, ptr %176, align 4
  %177 = load ptr, ptr %4, align 8, !tbaa !4
  call void @llvm.memcpy.p0.p0.i64(ptr align 4 %36, ptr align 4 %8, i64 4, i1 false), !tbaa.struct !112
  %178 = getelementptr inbounds nuw %"struct.Luau::CodeGen::IrOp", ptr %36, i32 0, i32 0
  %179 = load i32, ptr %178, align 4
  %180 = call i32 @_ZN4Luau7CodeGen9IrBuilder4instENS0_5IrCmdENS0_4IrOpE(ptr noundef nonnull align 8 dereferenceable(752) %177, i8 noundef zeroext 46, i32 %179)
  %181 = getelementptr inbounds nuw %"struct.Luau::CodeGen::IrOp", ptr %37, i32 0, i32 0
  store i32 %180, ptr %181, align 4
  %182 = load ptr, ptr %4, align 8, !tbaa !4
  call void @llvm.memcpy.p0.p0.i64(ptr align 4 %38, ptr align 4 %9, i64 4, i1 false), !tbaa.struct !112
  %183 = getelementptr inbounds nuw %"struct.Luau::CodeGen::IrOp", ptr %38, i32 0, i32 0
  %184 = load i32, ptr %183, align 4
  call void @_ZN4Luau7CodeGen9IrBuilder10beginBlockENS0_4IrOpE(ptr noundef nonnull align 8 dereferenceable(752) %182, i32 %184)
  %185 = load ptr, ptr %4, align 8, !tbaa !4
  %186 = load ptr, ptr %4, align 8, !tbaa !4
  %187 = load i32, ptr %6, align 4, !tbaa !11
  %188 = call i32 @_ZN4Luau7CodeGen9IrBuilder9constUintEj(ptr noundef nonnull align 8 dereferenceable(752) %186, i32 noundef %187)
  %189 = getelementptr inbounds nuw %"struct.Luau::CodeGen::IrOp", ptr %39, i32 0, i32 0
  store i32 %188, ptr %189, align 4
  %190 = load ptr, ptr %4, align 8, !tbaa !4
  %191 = load i32, ptr %7, align 4, !tbaa !11
  %192 = trunc i32 %191 to i8
  %193 = call i32 @_ZN4Luau7CodeGen9IrBuilder5vmRegEh(ptr noundef nonnull align 8 dereferenceable(752) %190, i8 noundef zeroext %192)
  %194 = getelementptr inbounds nuw %"struct.Luau::CodeGen::IrOp", ptr %40, i32 0, i32 0
  store i32 %193, ptr %194, align 4
  call void @llvm.memcpy.p0.p0.i64(ptr align 4 %41, ptr align 4 %8, i64 4, i1 false), !tbaa.struct !112
  %195 = getelementptr inbounds nuw %"struct.Luau::CodeGen::IrOp", ptr %39, i32 0, i32 0
  %196 = load i32, ptr %195, align 4
  %197 = getelementptr inbounds nuw %"struct.Luau::CodeGen::IrOp", ptr %40, i32 0, i32 0
  %198 = load i32, ptr %197, align 4
  %199 = getelementptr inbounds nuw %"struct.Luau::CodeGen::IrOp", ptr %41, i32 0, i32 0
  %200 = load i32, ptr %199, align 4
  %201 = call i32 @_ZN4Luau7CodeGen9IrBuilder4instENS0_5IrCmdENS0_4IrOpES3_S3_(ptr noundef nonnull align 8 dereferenceable(752) %185, i8 noundef zeroext 106, i32 %196, i32 %198, i32 %200)
  %202 = getelementptr inbounds nuw %"struct.Luau::CodeGen::IrOp", ptr %42, i32 0, i32 0
  store i32 %201, ptr %202, align 4
  call void @llvm.lifetime.end.p0(i64 4, ptr %18) #13
  call void @llvm.lifetime.end.p0(i64 4, ptr %12) #13
  call void @llvm.lifetime.end.p0(i64 4, ptr %9) #13
  call void @llvm.lifetime.end.p0(i64 4, ptr %8) #13
  call void @llvm.lifetime.end.p0(i64 4, ptr %7) #13
  ret void
}